; Function Attrs: mustprogress uwtable
define internal void @_ZN9grpc_core12_GLOBAL__N_117XdsOverrideHostLb14ShutdownLockedEv(ptr noundef nonnull align 8 dereferenceable(184) %0) unnamed_addr #3 align 2 personality ptr @__gxx_personality_v0 {
  %2 = alloca %"class.absl::lts_20240722::log_internal::LogMessage", align 8
  %3 = load atomic i8, ptr getelementptr inbounds nuw (i8, ptr @_ZN9grpc_core26xds_override_host_lb_traceE, i64 16) monotonic, align 8
  %4 = trunc i8 %3 to i1
  br i1 %4, label %5, label %.critedge11, !prof !47

5:                                                ; preds = %1
  call void @llvm.lifetime.start.p0(i64 16, ptr nonnull %2) #40
  call void @_ZN4absl12lts_2024072212log_internal10LogMessageC1EPKciNS2_7InfoTagE(ptr noundef nonnull align 8 dereferenceable(16) %2, ptr noundef nonnull @.str.16, i32 noundef 616) #44
  invoke void @_ZN4absl12lts_2024072212log_internal10LogMessage19CopyToEncodedBufferILNS2_10StringTypeE0EEEvSt17basic_string_viewIcSt11char_traitsIcEE(ptr noundef nonnull align 8 dereferenceable(16) %2, i64 22, ptr nonnull @.str.17)
          to label %_ZN4absl12lts_2024072212log_internal10LogMessagelsILi23EEERS2_RAT__Kc.exit unwind label %10

_ZN4absl12lts_2024072212log_internal10LogMessagelsILi23EEERS2_RAT__Kc.exit: ; preds = %5
  %6 = invoke fastcc noundef nonnull align 8 dereferenceable(16) ptr @_ZN4absl12lts_2024072212log_internal10LogMessagelsIPN9grpc_core12_GLOBAL__N_117XdsOverrideHostLbETnNSt9enable_ifIXntsr4absl16HasAbslStringifyIT_EE5valueEiE4typeELi0EEERS2_RKS9_(ptr noundef nonnull align 8 dereferenceable(16) %2, ptr nonnull %0)
          to label %7 unwind label %12

7:                                                ; preds = %_ZN4absl12lts_2024072212log_internal10LogMessagelsILi23EEERS2_RAT__Kc.exit
  invoke void @_ZN4absl12lts_2024072212log_internal10LogMessage19CopyToEncodedBufferILNS2_10StringTypeE0EEEvSt17basic_string_viewIcSt11char_traitsIcEE(ptr noundef nonnull align 8 dereferenceable(16) %2, i64 15, ptr nonnull @.str.88)
          to label %8 unwind label %12

8:                                                ; preds = %7
  call void @_ZN4absl12lts_2024072212log_internal10LogMessageD1Ev(ptr noundef nonnull align 8 dereferenceable(16) %2) #45
  call void @llvm.lifetime.end.p0(i64 16, ptr nonnull %2) #40
  br label %.critedge11

.critedge11:                                      ; preds = %1, %8
  %9 = getelementptr inbounds nuw i8, ptr %0, i64 80
  store i8 1, ptr %9, align 8, !tbaa !87
  call fastcc void @_ZN9grpc_core12_GLOBAL__N_117XdsOverrideHostLb10ResetStateEv(ptr noundef nonnull align 8 dereferenceable(184) %0)
  ret void

10:                                               ; preds = %5
  %11 = landingpad { ptr, i32 }
          cleanup
  br label %14

12:                                               ; preds = %7, %_ZN4absl12lts_2024072212log_internal10LogMessagelsILi23EEERS2_RAT__Kc.exit
  %13 = landingpad { ptr, i32 }
          cleanup
  br label %14

14:                                               ; preds = %10, %12
  %.pn = phi { ptr, i32 } [ %13, %12 ], [ %11, %10 ]
  call void @_ZN4absl12lts_2024072212log_internal10LogMessageD1Ev(ptr noundef nonnull align 8 dereferenceable(16) %2) #45
  call void @llvm.lifetime.end.p0(i64 16, ptr nonnull %2) #40
  resume { ptr, i32 } %.pn
}